target datalayout = "e-m:e-p270:32:32-p271:32:32-p272:64:64-i64:64-i128:128-f80:128-n8:16:32:64-S128"
target triple = "x86_64-pc-linux-gnu"

%struct.lemon = type { ptr, ptr, ptr, i32, i32, i32, i32, i32, i32, i32, i32, i32, i32, i32, i32, ptr, i32, ptr, ptr, ptr, ptr, ptr, ptr, ptr, ptr, ptr, ptr, ptr, ptr, ptr, ptr, ptr, ptr, ptr, ptr, ptr, ptr, i32, i32, i32, i32, i32, i32, i32, i32, ptr }
%struct.symbol = type { ptr, i32, i32, ptr, ptr, i32, i32, ptr, i32, i32, ptr, i32, ptr, i32, i32, i32, ptr }

; Function Attrs: nounwind null_pointer_is_valid sspstrong uwtable
define hidden i32 @has_destructor(ptr noundef %0, ptr noundef %1) #2 {
  %3 = alloca ptr, align 8
  %4 = alloca ptr, align 8
  %5 = alloca i32, align 4
  store ptr %0, ptr %3, align 8
  store ptr %1, ptr %4, align 8
  call void @llvm.lifetime.start.p0(i64 4, ptr %5) #18
  %6 = load ptr, ptr %3, align 8
  %7 = getelementptr inbounds nuw %struct.symbol, ptr %6, i32 0, i32 2
  %8 = load i32, ptr %7, align 4
  %9 = icmp eq i32 %8, 0
  br i1 %9, label %10, label %16

10:                                               ; preds = %2
  %11 = load ptr, ptr %4, align 8
  %12 = getelementptr inbounds nuw %struct.lemon, ptr %11, i32 0, i32 32
  %13 = load ptr, ptr %12, align 8
  %14 = icmp ne ptr %13, null
  %15 = zext i1 %14 to i32
  store i32 %15, ptr %5, align 4
  br label %29

16:                                               ; preds = %2
  %17 = load ptr, ptr %4, align 8
  %18 = getelementptr inbounds nuw %struct.lemon, ptr %17, i32 0, i32 33
  %19 = load ptr, ptr %18, align 8
  %20 = icmp ne ptr %19, null
  br i1 %20, label %26, label %21

21:                                               ; preds = %16
  %22 = load ptr, ptr %3, align 8
  %23 = getelementptr inbounds nuw %struct.symbol, ptr %22, i32 0, i32 10
  %24 = load ptr, ptr %23, align 8
  %25 = icmp ne ptr %24, null
  br label %26

26:                                               ; preds = %21, %16
  %27 = phi i1 [ true, %16 ], [ %25, %21 ]
  %28 = zext i1 %27 to i32
  store i32 %28, ptr %5, align 4
  br label %29

29:                                               ; preds = %26, %10
  %30 = load i32, ptr %5, align 4
  call void @llvm.lifetime.end.p0(i64 4, ptr %5) #18
  ret i32 %30
}