; Function Attrs: mustprogress nofree norecurse nosync nounwind null_pointer_is_valid sspstrong willreturn memory(argmem: read) uwtable
define hidden range(i32 0, 2) i32 @has_destructor(ptr noundef readonly captures(none) %0, ptr noundef readonly captures(none) %1) local_unnamed_addr #33 {
  %3 = getelementptr inbounds nuw i8, ptr %0, i64 12
  %4 = load i32, ptr %3, align 4
  %5 = icmp eq i32 %4, 0
  br i1 %5, label %6, label %10

6:                                                ; preds = %2
  %7 = getelementptr inbounds nuw i8, ptr %1, i64 208
  %8 = load ptr, ptr %7, align 8
  %9 = icmp ne ptr %8, null
  br label %17

10:                                               ; preds = %2
  %11 = getelementptr inbounds nuw i8, ptr %1, i64 216
  %12 = load ptr, ptr %11, align 8
  %.not = icmp eq ptr %12, null
  br i1 %.not, label %13, label %17

13:                                               ; preds = %10
  %14 = getelementptr inbounds nuw i8, ptr %0, i64 56
  %15 = load ptr, ptr %14, align 8
  %16 = icmp ne ptr %15, null
  br label %17

17:                                               ; preds = %10, %13, %6
  %.0.shrunk = phi i1 [ %9, %6 ], [ true, %10 ], [ %16, %13 ]
  %.0 = zext i1 %.0.shrunk to i32
  ret i32 %.0
}